target datalayout = "e-m:e-p270:32:32-p271:32:32-p272:64:64-i64:64-i128:128-f80:128-n8:16:32:64-S128"
target triple = "x86_64-pc-linux-gnu"

%struct.CPpmd7 = type { ptr, ptr, ptr, i32, i32, i32, i32, i32, i32, i32, i32, i32, ptr, ptr, ptr, ptr, ptr, i32, [38 x i8], [128 x i8], [38 x i32], [256 x i8], [256 x i8], [256 x i8], %struct.CPpmd_See, [25 x [16 x %struct.CPpmd_See]], [128 x [64 x i16]] }
%struct.CPpmd_See = type { i16, i8, i8 }

; Function Attrs: nounwind uwtable
define void @Ppmd7_Init(ptr noundef %0, i32 noundef %1) #0 {
  %3 = alloca ptr, align 8
  %4 = alloca i32, align 4
  store ptr %0, ptr %3, align 8, !tbaa !3
  store i32 %1, ptr %4, align 4, !tbaa !14
  %5 = load i32, ptr %4, align 4, !tbaa !14
  %6 = load ptr, ptr %3, align 8, !tbaa !3
  %7 = getelementptr inbounds nuw %struct.CPpmd7, ptr %6, i32 0, i32 6
  store i32 %5, ptr %7, align 4, !tbaa !21
  %8 = load ptr, ptr %3, align 8, !tbaa !3
  call void @RestartModel(ptr noundef %8)
  %9 = load ptr, ptr %3, align 8, !tbaa !3
  %10 = getelementptr inbounds nuw %struct.CPpmd7, ptr %9, i32 0, i32 24
  %11 = getelementptr inbounds nuw %struct.CPpmd_See, ptr %10, i32 0, i32 1
  store i8 7, ptr %11, align 2, !tbaa !22
  %12 = load ptr, ptr %3, align 8, !tbaa !3
  %13 = getelementptr inbounds nuw %struct.CPpmd7, ptr %12, i32 0, i32 24
  %14 = getelementptr inbounds nuw %struct.CPpmd_See, ptr %13, i32 0, i32 0
  store i16 0, ptr %14, align 4, !tbaa !23
  %15 = load ptr, ptr %3, align 8, !tbaa !3
  %16 = getelementptr inbounds nuw %struct.CPpmd7, ptr %15, i32 0, i32 24
  %17 = getelementptr inbounds nuw %struct.CPpmd_See, ptr %16, i32 0, i32 2
  store i8 64, ptr %17, align 1, !tbaa !24
  ret void
}